target datalayout = "e-m:e-p270:32:32-p271:32:32-p272:64:64-i64:64-i128:128-f80:128-n8:16:32:64-S128"
target triple = "x86_64-pc-linux-gnu"

%"class.std::vector" = type { %"struct.std::_Vector_base" }
%"struct.std::_Vector_base" = type { %"struct.std::_Vector_base<jsonnet::internal::FodderElement, std::allocator<jsonnet::internal::FodderElement>>::_Vector_impl" }
%"struct.std::_Vector_base<jsonnet::internal::FodderElement, std::allocator<jsonnet::internal::FodderElement>>::_Vector_impl" = type { %"struct.std::_Vector_base<jsonnet::internal::FodderElement, std::allocator<jsonnet::internal::FodderElement>>::_Vector_impl_data" }
%"struct.std::_Vector_base<jsonnet::internal::FodderElement, std::allocator<jsonnet::internal::FodderElement>>::_Vector_impl_data" = type { ptr, ptr, ptr }
%"class.std::__cxx11::basic_string" = type { %"struct.std::__cxx11::basic_string<char>::_Alloc_hider", i64, %union.anon }
%"struct.std::__cxx11::basic_string<char>::_Alloc_hider" = type { ptr }
%union.anon = type { i64, [8 x i8] }
%"class.jsonnet::internal::(anonymous namespace)::Parser" = type { ptr, ptr }
%"struct.jsonnet::internal::Token" = type { i32, %"class.std::vector", %"class.std::__cxx11::basic_string", %"class.std::__cxx11::basic_string", %"class.std::__cxx11::basic_string", %"struct.jsonnet::internal::LocationRange" }
%"struct.jsonnet::internal::LocationRange" = type { %"class.std::__cxx11::basic_string", %"struct.jsonnet::internal::Location", %"struct.jsonnet::internal::Location" }
%"struct.jsonnet::internal::Location" = type { i64, i64 }
%"struct.std::_List_iterator" = type { ptr }
%"struct.std::__detail::_List_node_header" = type { %"struct.std::__detail::_List_node_base", i64 }
%"struct.std::__detail::_List_node_base" = type { ptr, ptr }
%"class.std::__cxx11::_List_base" = type { %"struct.std::__cxx11::_List_base<jsonnet::internal::Token, std::allocator<jsonnet::internal::Token>>::_List_impl" }
%"struct.std::__cxx11::_List_base<jsonnet::internal::Token, std::allocator<jsonnet::internal::Token>>::_List_impl" = type { %"struct.std::__detail::_List_node_header" }
%"struct.std::_List_node" = type { %"struct.std::__detail::_List_node_base", %"struct.__gnu_cxx::__aligned_membuf.87" }
%"struct.__gnu_cxx::__aligned_membuf.87" = type { [192 x i8] }

; Function Attrs: mustprogress nounwind uwtable
define linkonce_odr void @_ZNSt15__new_allocatorISt10_List_nodeIN7jsonnet8internal5TokenEEE10deallocateEPS4_m(ptr noundef nonnull align 1 dereferenceable(1) %0, ptr noundef %1, i64 noundef %2) #5 comdat align 2 {
  %4 = alloca ptr, align 8
  %5 = alloca ptr, align 8
  %6 = alloca i64, align 8
  store ptr %0, ptr %4, align 8, !tbaa !377
  store ptr %1, ptr %5, align 8, !tbaa !365
  store i64 %2, ptr %6, align 8, !tbaa !130
  %7 = load ptr, ptr %5, align 8, !tbaa !365
  %8 = load i64, ptr %6, align 8, !tbaa !130
  %9 = mul i64 %8, 208
  call void @_ZdlPvm(ptr noundef %7, i64 noundef %9) #23
  ret void
}

; Function Attrs: mustprogress nounwind uwtable
define linkonce_odr noundef ptr @_ZN9__gnu_cxx16__aligned_membufIN7jsonnet8internal5TokenEE7_M_addrEv(ptr noundef nonnull align 8 dereferenceable(192) %0) #5 comdat align 2 {
  %2 = alloca ptr, align 8
  store ptr %0, ptr %2, align 8, !tbaa !379
  %3 = load ptr, ptr %2, align 8
  %4 = getelementptr inbounds nuw %"struct.__gnu_cxx::__aligned_membuf.87", ptr %3, i32 0, i32 0
  ret ptr %4
}

; Function Attrs: mustprogress uwtable
define linkonce_odr void @_ZNSt16allocator_traitsISaISt10_List_nodeIN7jsonnet8internal5TokenEEEE10deallocateERS5_PS4_m(ptr noundef nonnull align 1 dereferenceable(1) %0, ptr noundef %1, i64 noundef %2) #4 comdat align 2 {
  %4 = alloca ptr, align 8
  %5 = alloca ptr, align 8
  %6 = alloca i64, align 8
  store ptr %0, ptr %4, align 8, !tbaa !375
  store ptr %1, ptr %5, align 8, !tbaa !365
  store i64 %2, ptr %6, align 8, !tbaa !130
  %7 = load ptr, ptr %4, align 8, !tbaa !375
  %8 = load ptr, ptr %5, align 8, !tbaa !365
  %9 = load i64, ptr %6, align 8, !tbaa !130
  call void @_ZNSt15__new_allocatorISt10_List_nodeIN7jsonnet8internal5TokenEEE10deallocateEPS4_m(ptr noundef nonnull align 1 dereferenceable(1) %7, ptr noundef %8, i64 noundef %9)
  ret void
}

; Function Attrs: mustprogress nounwind uwtable
define linkonce_odr void @_ZNSt15__new_allocatorISt10_List_nodeIN7jsonnet8internal5TokenEEE7destroyIS3_EEvPT_(ptr noundef nonnull align 1 dereferenceable(1) %0, ptr noundef %1) #5 comdat align 2 {
  %3 = alloca ptr, align 8
  %4 = alloca ptr, align 8
  store ptr %0, ptr %3, align 8, !tbaa !377
  store ptr %1, ptr %4, align 8, !tbaa !62
  %5 = load ptr, ptr %4, align 8, !tbaa !62
  call void @_ZN7jsonnet8internal5TokenD2Ev(ptr noundef nonnull align 8 dereferenceable(192) %5) #3
  ret void
}

; Function Attrs: mustprogress nounwind uwtable
define linkonce_odr noundef ptr @_ZN9__gnu_cxx16__aligned_membufIN7jsonnet8internal5TokenEE6_M_ptrEv(ptr noundef nonnull align 8 dereferenceable(192) %0) #5 comdat align 2 {
  %2 = alloca ptr, align 8
  store ptr %0, ptr %2, align 8, !tbaa !379
  %3 = load ptr, ptr %2, align 8
  %4 = call noundef ptr @_ZN9__gnu_cxx16__aligned_membufIN7jsonnet8internal5TokenEE7_M_addrEv(ptr noundef nonnull align 8 dereferenceable(192) %3) #3
  ret ptr %4
}

; Function Attrs: noinline noreturn nounwind uwtable
define linkonce_odr hidden void @__clang_call_terminate(ptr noundef %0) #10 comdat {
  %2 = call ptr @__cxa_begin_catch(ptr %0) #3
  call void @_ZSt9terminatev() #20
  unreachable
}

; Function Attrs: mustprogress nounwind uwtable
define linkonce_odr void @_ZNSt7__cxx1110_List_baseIN7jsonnet8internal5TokenESaIS3_EE11_M_put_nodeEPSt10_List_nodeIS3_E(ptr noundef nonnull align 8 dereferenceable(24) %0, ptr noundef %1) #5 comdat align 2 personality ptr @__gxx_personality_v0 {
  %3 = alloca ptr, align 8
  %4 = alloca ptr, align 8
  store ptr %0, ptr %3, align 8, !tbaa !369
  store ptr %1, ptr %4, align 8, !tbaa !365
  %5 = load ptr, ptr %3, align 8
  %6 = getelementptr inbounds nuw %"class.std::__cxx11::_List_base", ptr %5, i32 0, i32 0
  %7 = load ptr, ptr %4, align 8, !tbaa !365
  invoke void @_ZNSt16allocator_traitsISaISt10_List_nodeIN7jsonnet8internal5TokenEEEE10deallocateERS5_PS4_m(ptr noundef nonnull align 1 dereferenceable(1) %6, ptr noundef %7, i64 noundef 1)
          to label %8 unwind label %9

8:                                                ; preds = %2
  ret void

9:                                                ; preds = %2
  %10 = landingpad { ptr, i32 }
          catch ptr null
  %11 = extractvalue { ptr, i32 } %10, 0
  call void @__clang_call_terminate(ptr %11) #20
  unreachable
}

; Function Attrs: mustprogress nounwind uwtable
define linkonce_odr void @_ZNSt16allocator_traitsISaISt10_List_nodeIN7jsonnet8internal5TokenEEEE7destroyIS3_EEvRS5_PT_(ptr noundef nonnull align 1 dereferenceable(1) %0, ptr noundef %1) #5 comdat align 2 {
  %3 = alloca ptr, align 8
  %4 = alloca ptr, align 8
  store ptr %0, ptr %3, align 8, !tbaa !375
  store ptr %1, ptr %4, align 8, !tbaa !62
  %5 = load ptr, ptr %3, align 8, !tbaa !375
  %6 = load ptr, ptr %4, align 8, !tbaa !62
  call void @_ZNSt15__new_allocatorISt10_List_nodeIN7jsonnet8internal5TokenEEE7destroyIS3_EEvPT_(ptr noundef nonnull align 1 dereferenceable(1) %5, ptr noundef %6) #3
  ret void
}

; Function Attrs: mustprogress nounwind uwtable
define linkonce_odr noundef ptr @_ZNSt10_List_nodeIN7jsonnet8internal5TokenEE9_M_valptrEv(ptr noundef nonnull align 8 dereferenceable(208) %0) #5 comdat align 2 {
  %2 = alloca ptr, align 8
  store ptr %0, ptr %2, align 8, !tbaa !365
  %3 = load ptr, ptr %2, align 8
  %4 = getelementptr inbounds nuw %"struct.std::_List_node", ptr %3, i32 0, i32 1
  %5 = call noundef ptr @_ZN9__gnu_cxx16__aligned_membufIN7jsonnet8internal5TokenEE6_M_ptrEv(ptr noundef nonnull align 8 dereferenceable(192) %4) #3
  ret ptr %5
}

; Function Attrs: mustprogress nounwind uwtable
define linkonce_odr noundef nonnull align 1 dereferenceable(1) ptr @_ZNSt7__cxx1110_List_baseIN7jsonnet8internal5TokenESaIS3_EE21_M_get_Node_allocatorEv(ptr noundef nonnull align 8 dereferenceable(24) %0) #5 comdat align 2 {
  %2 = alloca ptr, align 8
  store ptr %0, ptr %2, align 8, !tbaa !369
  %3 = load ptr, ptr %2, align 8
  %4 = getelementptr inbounds nuw %"class.std::__cxx11::_List_base", ptr %3, i32 0, i32 0
  ret ptr %4
}

; Function Attrs: mustprogress nounwind uwtable
define linkonce_odr void @_ZNSt7__cxx1110_List_baseIN7jsonnet8internal5TokenESaIS3_EE11_M_dec_sizeEm(ptr noundef nonnull align 8 dereferenceable(24) %0, i64 noundef %1) #5 comdat align 2 {
  %3 = alloca ptr, align 8
  %4 = alloca i64, align 8
  store ptr %0, ptr %3, align 8, !tbaa !369
  store i64 %1, ptr %4, align 8, !tbaa !130
  %5 = load ptr, ptr %3, align 8
  %6 = load i64, ptr %4, align 8, !tbaa !130
  %7 = getelementptr inbounds nuw %"class.std::__cxx11::_List_base", ptr %5, i32 0, i32 0
  %8 = getelementptr inbounds nuw %"struct.std::__cxx11::_List_base<jsonnet::internal::Token, std::allocator<jsonnet::internal::Token>>::_List_impl", ptr %7, i32 0, i32 0
  %9 = getelementptr inbounds nuw %"struct.std::__detail::_List_node_header", ptr %8, i32 0, i32 1
  %10 = load i64, ptr %9, align 8, !tbaa !371
  %11 = sub i64 %10, %6
  store i64 %11, ptr %9, align 8, !tbaa !371
  ret void
}

; Function Attrs: mustprogress nounwind uwtable
define linkonce_odr void @_ZNSt14_List_iteratorIN7jsonnet8internal5TokenEEC2EPNSt8__detail15_List_node_baseE(ptr noundef nonnull align 8 dereferenceable(8) %0, ptr noundef %1) unnamed_addr #5 comdat align 2 {
  %3 = alloca ptr, align 8
  %4 = alloca ptr, align 8
  store ptr %0, ptr %3, align 8, !tbaa !381
  store ptr %1, ptr %4, align 8, !tbaa !383
  %5 = load ptr, ptr %3, align 8
  %6 = getelementptr inbounds nuw %"struct.std::_List_iterator", ptr %5, i32 0, i32 0
  %7 = load ptr, ptr %4, align 8, !tbaa !383
  store ptr %7, ptr %6, align 8, !tbaa !362
  ret void
}

; Function Attrs: mustprogress nounwind uwtable
define linkonce_odr noundef nonnull align 8 dereferenceable(192) ptr @_ZNKSt14_List_iteratorIN7jsonnet8internal5TokenEEdeEv(ptr noundef nonnull align 8 dereferenceable(8) %0) #5 comdat align 2 {
  %2 = alloca ptr, align 8
  store ptr %0, ptr %2, align 8, !tbaa !381
  %3 = load ptr, ptr %2, align 8
  %4 = getelementptr inbounds nuw %"struct.std::_List_iterator", ptr %3, i32 0, i32 0
  %5 = load ptr, ptr %4, align 8, !tbaa !362
  %6 = call noundef ptr @_ZNSt10_List_nodeIN7jsonnet8internal5TokenEE9_M_valptrEv(ptr noundef nonnull align 8 dereferenceable(208) %5)
  ret ptr %6
}

; Function Attrs: mustprogress nounwind uwtable
define linkonce_odr void @_ZNSt7__cxx114listIN7jsonnet8internal5TokenESaIS3_EE8_M_eraseESt14_List_iteratorIS3_E(ptr noundef nonnull align 8 dereferenceable(24) %0, ptr %1) #5 comdat align 2 personality ptr @__gxx_personality_v0 {
  %3 = alloca %"struct.std::_List_iterator", align 8
  %4 = alloca ptr, align 8
  %5 = alloca ptr, align 8
  %6 = getelementptr inbounds nuw %"struct.std::_List_iterator", ptr %3, i32 0, i32 0
  store ptr %1, ptr %6, align 8
  store ptr %0, ptr %4, align 8, !tbaa !42
  %7 = load ptr, ptr %4, align 8
  invoke void @_ZNSt7__cxx1110_List_baseIN7jsonnet8internal5TokenESaIS3_EE11_M_dec_sizeEm(ptr noundef nonnull align 8 dereferenceable(24) %7, i64 noundef 1)
          to label %8 unwind label %18

8:                                                ; preds = %2
  %9 = getelementptr inbounds nuw %"struct.std::_List_iterator", ptr %3, i32 0, i32 0
  %10 = load ptr, ptr %9, align 8, !tbaa !362
  call void @_ZNSt8__detail15_List_node_base9_M_unhookEv(ptr noundef nonnull align 8 dereferenceable(16) %10) #3
  call void @llvm.lifetime.start.p0(i64 8, ptr %5) #3
  %11 = getelementptr inbounds nuw %"struct.std::_List_iterator", ptr %3, i32 0, i32 0
  %12 = load ptr, ptr %11, align 8, !tbaa !362
  store ptr %12, ptr %5, align 8, !tbaa !365
  %13 = call noundef nonnull align 1 dereferenceable(1) ptr @_ZNSt7__cxx1110_List_baseIN7jsonnet8internal5TokenESaIS3_EE21_M_get_Node_allocatorEv(ptr noundef nonnull align 8 dereferenceable(24) %7) #3
  %14 = load ptr, ptr %5, align 8, !tbaa !365
  %15 = invoke noundef ptr @_ZNSt10_List_nodeIN7jsonnet8internal5TokenEE9_M_valptrEv(ptr noundef nonnull align 8 dereferenceable(208) %14)
          to label %16 unwind label %18

16:                                               ; preds = %8
  call void @_ZNSt16allocator_traitsISaISt10_List_nodeIN7jsonnet8internal5TokenEEEE7destroyIS3_EEvRS5_PT_(ptr noundef nonnull align 1 dereferenceable(1) %13, ptr noundef %15) #3
  %17 = load ptr, ptr %5, align 8, !tbaa !365
  call void @_ZNSt7__cxx1110_List_baseIN7jsonnet8internal5TokenESaIS3_EE11_M_put_nodeEPSt10_List_nodeIS3_E(ptr noundef nonnull align 8 dereferenceable(24) %7, ptr noundef %17) #3
  call void @llvm.lifetime.end.p0(i64 8, ptr %5) #3
  ret void

18:                                               ; preds = %8, %2
  %19 = landingpad { ptr, i32 }
          catch ptr null
  %20 = extractvalue { ptr, i32 } %19, 0
  call void @__clang_call_terminate(ptr %20) #20
  unreachable
}

; Function Attrs: mustprogress nounwind uwtable
define linkonce_odr ptr @_ZNSt7__cxx114listIN7jsonnet8internal5TokenESaIS3_EE5beginEv(ptr noundef nonnull align 8 dereferenceable(24) %0) #5 comdat align 2 {
  %2 = alloca %"struct.std::_List_iterator", align 8
  %3 = alloca ptr, align 8
  store ptr %0, ptr %3, align 8, !tbaa !42
  %4 = load ptr, ptr %3, align 8
  %5 = getelementptr inbounds nuw %"class.std::__cxx11::_List_base", ptr %4, i32 0, i32 0
  %6 = getelementptr inbounds nuw %"struct.std::__cxx11::_List_base<jsonnet::internal::Token, std::allocator<jsonnet::internal::Token>>::_List_impl", ptr %5, i32 0, i32 0
  %7 = getelementptr inbounds nuw %"struct.std::__detail::_List_node_base", ptr %6, i32 0, i32 0
  %8 = load ptr, ptr %7, align 8, !tbaa !367
  call void @_ZNSt14_List_iteratorIN7jsonnet8internal5TokenEEC2EPNSt8__detail15_List_node_baseE(ptr noundef nonnull align 8 dereferenceable(8) %2, ptr noundef %8) #3
  %9 = getelementptr inbounds nuw %"struct.std::_List_iterator", ptr %2, i32 0, i32 0
  %10 = load ptr, ptr %9, align 8
  ret ptr %10
}

; Function Attrs: mustprogress nounwind uwtable
define linkonce_odr noundef nonnull align 8 dereferenceable(192) ptr @_ZNSt7__cxx114listIN7jsonnet8internal5TokenESaIS3_EE5frontEv(ptr noundef nonnull align 8 dereferenceable(24) %0) #5 comdat align 2 {
  %2 = alloca ptr, align 8
  %3 = alloca %"struct.std::_List_iterator", align 8
  store ptr %0, ptr %2, align 8, !tbaa !42
  %4 = load ptr, ptr %2, align 8
  call void @llvm.lifetime.start.p0(i64 8, ptr %3) #3
  %5 = call ptr @_ZNSt7__cxx114listIN7jsonnet8internal5TokenESaIS3_EE5beginEv(ptr noundef nonnull align 8 dereferenceable(24) %4) #3
  %6 = getelementptr inbounds nuw %"struct.std::_List_iterator", ptr %3, i32 0, i32 0
  store ptr %5, ptr %6, align 8
  %7 = call noundef nonnull align 8 dereferenceable(192) ptr @_ZNKSt14_List_iteratorIN7jsonnet8internal5TokenEEdeEv(ptr noundef nonnull align 8 dereferenceable(8) %3) #3
  call void @llvm.lifetime.end.p0(i64 8, ptr %3) #3
  ret ptr %7
}

; Function Attrs: mustprogress nounwind uwtable
define linkonce_odr void @_ZNSt7__cxx114listIN7jsonnet8internal5TokenESaIS3_EE9pop_frontEv(ptr noundef nonnull align 8 dereferenceable(24) %0) #5 comdat align 2 {
  %2 = alloca ptr, align 8
  %3 = alloca %"struct.std::_List_iterator", align 8
  store ptr %0, ptr %2, align 8, !tbaa !42
  %4 = load ptr, ptr %2, align 8
  %5 = call ptr @_ZNSt7__cxx114listIN7jsonnet8internal5TokenESaIS3_EE5beginEv(ptr noundef nonnull align 8 dereferenceable(24) %4) #3
  %6 = getelementptr inbounds nuw %"struct.std::_List_iterator", ptr %3, i32 0, i32 0
  store ptr %5, ptr %6, align 8
  %7 = getelementptr inbounds nuw %"struct.std::_List_iterator", ptr %3, i32 0, i32 0
  %8 = load ptr, ptr %7, align 8
  call void @_ZNSt7__cxx114listIN7jsonnet8internal5TokenESaIS3_EE8_M_eraseESt14_List_iteratorIS3_E(ptr noundef nonnull align 8 dereferenceable(24) %4, ptr %8) #3
  ret void
}

; Function Attrs: mustprogress nounwind uwtable
define internal noundef nonnull align 8 dereferenceable(192) ptr @_ZN7jsonnet8internal12_GLOBAL__N_16Parser4peekEv(ptr noundef nonnull align 8 dereferenceable(16) %0) #5 align 2 {
  %2 = alloca ptr, align 8
  store ptr %0, ptr %2, align 8, !tbaa !58
  %3 = load ptr, ptr %2, align 8
  %4 = getelementptr inbounds nuw %"class.jsonnet::internal::(anonymous namespace)::Parser", ptr %3, i32 0, i32 0
  %5 = load ptr, ptr %4, align 8, !tbaa !294
  %6 = call noundef nonnull align 8 dereferenceable(192) ptr @_ZNSt7__cxx114listIN7jsonnet8internal5TokenESaIS3_EE5frontEv(ptr noundef nonnull align 8 dereferenceable(24) %5) #3
  ret ptr %6
}

; Function Attrs: mustprogress uwtable
define internal void @_ZN7jsonnet8internal12_GLOBAL__N_16Parser3popEv(ptr dead_on_unwind noalias writable sret(%"struct.jsonnet::internal::Token") align 8 %0, ptr noundef nonnull align 8 dereferenceable(16) %1) #4 align 2 {
  %3 = alloca ptr, align 8
  %4 = alloca ptr, align 8
  %5 = alloca i1, align 1
  store ptr %0, ptr %3, align 8
  store ptr %1, ptr %4, align 8, !tbaa !58
  %6 = load ptr, ptr %4, align 8
  store i1 false, ptr %5, align 1
  %7 = call noundef nonnull align 8 dereferenceable(192) ptr @_ZN7jsonnet8internal12_GLOBAL__N_16Parser4peekEv(ptr noundef nonnull align 8 dereferenceable(16) %6)
  call void @_ZN7jsonnet8internal5TokenC2ERKS1_(ptr noundef nonnull align 8 dereferenceable(192) %0, ptr noundef nonnull align 8 dereferenceable(192) %7)
  %8 = getelementptr inbounds nuw %"class.jsonnet::internal::(anonymous namespace)::Parser", ptr %6, i32 0, i32 0
  %9 = load ptr, ptr %8, align 8, !tbaa !294
  call void @_ZNSt7__cxx114listIN7jsonnet8internal5TokenESaIS3_EE9pop_frontEv(ptr noundef nonnull align 8 dereferenceable(24) %9) #3
  store i1 true, ptr %5, align 1
  %10 = load i1, ptr %5, align 1
  br i1 %10, label %12, label %11

11:                                               ; preds = %2
  call void @_ZN7jsonnet8internal5TokenD2Ev(ptr noundef nonnull align 8 dereferenceable(192) %0) #3
  br label %12

12:                                               ; preds = %11, %2
  ret void
}