; Function Attrs: mustprogress uwtable
define internal fastcc void @_ZN7jsonnet8internal12_GLOBAL__N_16Parser3popEv(ptr dead_on_unwind noalias nonnull writable align 8 %0, ptr noundef nonnull readonly align 8 captures(none) dereferenceable(16) %1) unnamed_addr #4 align 2 personality ptr @__gxx_personality_v0 {
  %.val = load ptr, ptr %1, align 8, !tbaa !77
  %.val.val = load ptr, ptr %.val, align 8, !tbaa !66
  %3 = getelementptr inbounds nuw i8, ptr %.val.val, i64 16
  tail call void @_ZN7jsonnet8internal5TokenC2ERKS1_(ptr noundef nonnull align 8 dereferenceable(192) %0, ptr noundef nonnull align 8 dereferenceable(192) %3)
  %4 = load ptr, ptr %1, align 8, !tbaa !77
  %5 = load ptr, ptr %4, align 8, !tbaa !66
  %6 = getelementptr inbounds nuw i8, ptr %4, i64 16
  %7 = load i64, ptr %6, align 8, !tbaa !83
  %8 = add i64 %7, -1
  store i64 %8, ptr %6, align 8, !tbaa !83
  tail call void @_ZNSt8__detail15_List_node_base9_M_unhookEv(ptr noundef nonnull align 8 dereferenceable(16) %5) #26
  %9 = getelementptr inbounds nuw i8, ptr %5, i64 16
  tail call void @_ZN7jsonnet8internal5TokenD2Ev(ptr noundef nonnull align 8 dereferenceable(192) %9) #26
  tail call void @_ZdlPvm(ptr noundef nonnull %5, i64 noundef 208) #27
  ret void
}